Certificate:
    Data:
        Version: 3 (0x2)
        Serial Number: 1 (0x1)
    Signature Algorithm: sm2sign-with-sm3
        Issuer: C=BJ, ST=Beijing, L=beijing, O=ftsafe, OU=ftsafe, CN=Feitian/emailAddress=wangzhe@ftsafe.com
        Validity
            Not Before: May 13 05:33:31 2018 GMT
            Not After : May 10 05:33:31 2028 GMT
        Subject: C=BJ, ST=Beijing, O=ftsafe, OU=Feitian, CN=ftsafe-test/emailAddress=zhe_wang@126.com
        Subject Public Key Info:
            Public Key Algorithm: id-ecPublicKey
                Public-Key: (256 bit)
                pub:
                    04:72:1f:34:d2:f6:51:e9:df:2c:a0:aa:52:bd:99:
                    80:46:f1:51:29:b6:c1:dc:8b:80:a7:b2:7f:f4:fd:
                    52:5a:42:e8:67:48:2b:51:6f:da:bf:da:ba:d9:80:
                    28:6f:44:88:89:20:12:ce:47:b5:e6:4c:5e:fc:9f:
                    3b:70:b0:d3:f1
                ASN1 OID: sm2p256v1
                NIST CURVE: SM2
        X509v3 extensions:
            X509v3 Basic Constraints: 
                CA:FALSE
            X509v3 Key Usage: 
                Key Encipherment
            Netscape Comment: 
                GmSSL Generated Certificate
            X509v3 Subject Key Identifier: 
                73:7D:F1:F8:23:E7:4F:44:5E:B8:57:78:60:8D:87:14:3D:C0:95:41
            X509v3 Authority Key Identifier: 
                keyid:E6:C5:D1:AA:0A:57:DF:53:9B:9C:6F:A3:6F:46:51:E4:D2:F1:EB:79

    Signature Algorithm: sm2sign-with-sm3
         30:45:02:21:00:90:83:13:27:f7:8a:77:a8:72:31:ac:a8:a7:
         b0:69:99:cc:45:9c:08:36:1b:17:38:78:1b:e6:13:c9:d3:27:
         0d:02:20:66:2b:8a:40:92:73:72:e9:a5:79:0c:f4:67:36:80:
         f1:1a:e2:bb:d9:73:fd:a8:c1:b7:1c:35:28:b6:d6:90:bb
-----BEGIN CERTIFICATE-----
MIICeTCCAh+gAwIBAgIBATAKBggqgRzPVQGDdTCBiDELMAkGA1UEBhMCQkoxEDAO
BgNVBAgMB0JlaWppbmcxEDAOBgNVBAcMB2JlaWppbmcxDzANBgNVBAoMBmZ0c2Fm
ZTEPMA0GA1UECwwGZnRzYWZlMRAwDgYDVQQDDAdGZWl0aWFuMSEwHwYJKoZIhvcN
AQkBFhJ3YW5nemhlQGZ0c2FmZS5jb20wHhcNMTgwNTEzMDUzMzMxWhcNMjgwNTEw
MDUzMzMxWjB5MQswCQYDVQQGEwJCSjEQMA4GA1UECAwHQmVpamluZzEPMA0GA1UE
CgwGZnRzYWZlMRAwDgYDVQQLDAdGZWl0aWFuMRQwEgYDVQQDDAtmdHNhZmUtdGVz
dDEfMB0GCSqGSIb3DQEJARYQemhlX3dhbmdAMTI2LmNvbTBZMBMGByqGSM49AgEG
CCqBHM9VAYItA0IABHIfNNL2UenfLKCqUr2ZgEbxUSm2wdyLgKeyf/T9UlpC6GdI
K1Fv2r/autmAKG9EiIkgEs5HteZMXvyfO3Cw0/GjgYcwgYQwCQYDVR0TBAIwADAL
BgNVHQ8EBAMCBSAwKgYJYIZIAYb4QgENBB0WG0dtU1NMIEdlbmVyYXRlZCBDZXJ0
aWZpY2F0ZTAdBgNVHQ4EFgQUc33x+CPnT0ReuFd4YI2HFD3AlUEwHwYDVR0jBBgw
FoAU5sXRqgpX31ObnG+jb0ZR5NLx63kwCgYIKoEcz1UBg3UDSAAwRQIhAJCDEyf3
ineocjGsqKewaZnMRZwINhsXOHgb5hPJ0ycNAiBmK4pAknNy6aV5DPRnNoDxGuK7
2XP9qMG3HDUottaQuw==
-----END CERTIFICATE-----
